; Function Attrs: mustprogress uwtable
define hidden void @_ZN15model_implicant14minimize_modelERK10ptr_vectorI4exprER3refI5modelE(ptr noalias sret(%class.ref_vector) align 8 %agg.result, ptr noundef nonnull align 8 dereferenceable(184) %this, ptr nocapture noundef nonnull readonly align 8 dereferenceable(8) %formulas, ptr nocapture noundef nonnull readonly align 8 dereferenceable(8) %mdl) local_unnamed_addr #3 align 2 personality ptr @__gxx_personality_v0 {
entry:
  tail call void @_ZN15model_implicant11setup_modelER3refI5modelE(ptr noundef nonnull align 8 dereferenceable(184) %this, ptr noundef nonnull align 8 dereferenceable(8) %mdl)
  tail call void @_ZN15model_implicant26prune_by_cone_of_influenceERK10ptr_vectorI4exprE(ptr sret(%class.ref_vector) align 8 %agg.result, ptr noundef nonnull align 8 dereferenceable(184) %this, ptr noundef nonnull align 8 dereferenceable(8) %formulas)
  invoke void @_ZN15model_implicant5resetEv(ptr noundef nonnull align 8 dereferenceable(184) %this)
          to label %nrvo.skipdtor unwind label %lpad

lpad:                                             ; preds = %entry
  %0 = landingpad { ptr, i32 }
          cleanup
  tail call void @_ZN10ref_vectorI4expr11ast_managerED2Ev(ptr noundef nonnull align 8 dereferenceable(16) %agg.result) #17
  resume { ptr, i32 } %0

nrvo.skipdtor:                                    ; preds = %entry
  ret void
}